; Function Attrs: mustprogress nounwind uwtable
define void @_ZN9context_tD2Ev(ptr noundef nonnull align 8 captures(none) dereferenceable(32) %0) unnamed_addr #2 align 2 personality ptr @__gxx_personality_v0 {
  %2 = getelementptr inbounds nuw i8, ptr %0, i64 24
  %3 = load ptr, ptr %2, align 8, !tbaa !3
  %.not.i = icmp eq ptr %3, null
  br i1 %.not.i, label %_ZNSt10unique_ptrI10ucontext_tSt14default_deleteIS0_EED2Ev.exit, label %_ZNKSt14default_deleteI10ucontext_tEclEPS0_.exit.i

_ZNKSt14default_deleteI10ucontext_tEclEPS0_.exit.i: ; preds = %1
  tail call void @_ZdlPvm(ptr noundef nonnull %3, i64 noundef 968) #13
  br label %_ZNSt10unique_ptrI10ucontext_tSt14default_deleteIS0_EED2Ev.exit

_ZNSt10unique_ptrI10ucontext_tSt14default_deleteIS0_EED2Ev.exit: ; preds = %1, %_ZNKSt14default_deleteI10ucontext_tEclEPS0_.exit.i
  store ptr null, ptr %2, align 8, !tbaa !3
  ret void
}